target datalayout = "e-m:e-p270:32:32-p271:32:32-p272:64:64-i64:64-i128:128-f80:128-n8:16:32:64-S128"
target triple = "x86_64-unknown-linux-gnu"

%"struct.icu_75::FormattedStringBuilder::Field" = type { i8 }
%"class.icu_75::number::impl::UFormattedNumberData" = type { %"class.icu_75::FormattedValueStringBuilderImpl.base", [4 x i8], %"class.icu_75::number::impl::DecimalQuantity", %"class.icu_75::MeasureUnit", ptr }
%"class.icu_75::FormattedValueStringBuilderImpl.base" = type <{ %"class.icu_75::FormattedValue", %"class.icu_75::FormattedStringBuilder", %"struct.icu_75::FormattedStringBuilder::Field", [7 x i8], %"class.icu_75::MaybeStackArray.2", i32 }>
%"class.icu_75::FormattedValue" = type { ptr }
%"class.icu_75::FormattedStringBuilder" = type { i8, %"union.icu_75::FormattedStringBuilder::ValueOrHeapArray", %"union.icu_75::FormattedStringBuilder::ValueOrHeapArray.0", i32, i32 }
%"union.icu_75::FormattedStringBuilder::ValueOrHeapArray" = type { %struct.anon, [64 x i8] }
%struct.anon = type { ptr, i32 }
%"union.icu_75::FormattedStringBuilder::ValueOrHeapArray.0" = type { %struct.anon.1, [24 x i8] }
%struct.anon.1 = type { ptr, i32 }
%"class.icu_75::MaybeStackArray.2" = type { ptr, i32, i8, [8 x %"struct.icu_75::SpanInfo"] }
%"struct.icu_75::SpanInfo" = type { i32, i32, i32, i32 }
%"class.icu_75::number::impl::DecimalQuantity" = type <{ %"class.icu_75::IFixedDecimal", i8, [3 x i8], i32, i32, i8, i8, [2 x i8], double, i32, i32, i32, i32, %union.anon, i8, i8, [6 x i8] }>
%"class.icu_75::IFixedDecimal" = type { ptr }
%union.anon = type { %struct.anon.3 }
%struct.anon.3 = type { ptr, i32 }
%"class.icu_75::MeasureUnit" = type <{ %"class.icu_75::UObject", ptr, i16, i8, [5 x i8] }>
%"class.icu_75::UObject" = type { ptr }
%"class.icu_75::number::SimpleNumberFormatter" = type { i32, ptr, ptr, ptr }
%"class.icu_75::number::impl::AdoptingSignumModifierStore" = type { ptr, [4 x ptr] }
%"class.icu_75::FormattedValueStringBuilderImpl" = type <{ %"class.icu_75::FormattedValue", %"class.icu_75::FormattedStringBuilder", %"struct.icu_75::FormattedStringBuilder::Field", [7 x i8], %"class.icu_75::MaybeStackArray.2", i32, [4 x i8] }>

; Function Attrs: mustprogress nounwind uwtable
define linkonce_odr noundef nonnull align 8 dereferenceable(136) ptr @_ZN6icu_7531FormattedValueStringBuilderImpl12getStringRefEv(ptr noundef nonnull align 8 dereferenceable(300) %this) #0 comdat align 2 {
entry:
  %this.addr = alloca ptr, align 8
  store ptr %this, ptr %this.addr, align 8
  %this1 = load ptr, ptr %this.addr, align 8
  %fString = getelementptr inbounds %"class.icu_75::FormattedValueStringBuilderImpl", ptr %this1, i32 0, i32 1
  ret ptr %fString
}

; Function Attrs: mustprogress nounwind uwtable
define linkonce_odr noundef nonnull align 8 dereferenceable(8) ptr @_ZN6icu_756number4impl27AdoptingSignumModifierStoreixENS1_6SignumE(ptr noundef nonnull align 8 dereferenceable(40) %this, i32 noundef %signum) #0 comdat align 2 {
entry:
  %this.addr = alloca ptr, align 8
  %signum.addr = alloca i32, align 4
  store ptr %this, ptr %this.addr, align 8
  store i32 %signum, ptr %signum.addr, align 4
  %this1 = load ptr, ptr %this.addr, align 8
  %mods = getelementptr inbounds %"class.icu_75::number::impl::AdoptingSignumModifierStore", ptr %this1, i32 0, i32 1
  %0 = load i32, ptr %signum.addr, align 4
  %idxprom = zext i32 %0 to i64
  %arrayidx = getelementptr inbounds [4 x ptr], ptr %mods, i64 0, i64 %idxprom
  ret ptr %arrayidx
}

; Function Attrs: mustprogress nounwind uwtable
define internal noundef signext i8 @_ZL9U_FAILURE10UErrorCode(i32 noundef %code) #0 {
entry:
  %code.addr = alloca i32, align 4
  store i32 %code, ptr %code.addr, align 4
  %0 = load i32, ptr %code.addr, align 4
  %cmp = icmp sgt i32 %0, 0
  %conv = zext i1 %cmp to i8
  ret i8 %conv
}

; Function Attrs: mustprogress uwtable
define void @_ZNK6icu_756number21SimpleNumberFormatter10formatImplEPNS0_4impl20UFormattedNumberDataE17USimpleNumberSignR10UErrorCode(ptr noundef nonnull align 8 dereferenceable(32) %this, ptr noundef %data, i32 noundef %sign, ptr noundef nonnull align 4 dereferenceable(4) %status) #1 align 2 {
entry:
  %this.addr = alloca ptr, align 8
  %data.addr = alloca ptr, align 8
  %sign.addr = alloca i32, align 4
  %status.addr = alloca ptr, align 8
  %signum = alloca i32, align 4
  %modifier = alloca ptr, align 8
  %length = alloca i32, align 4
  store ptr %this, ptr %this.addr, align 8
  store ptr %data, ptr %data.addr, align 8
  store i32 %sign, ptr %sign.addr, align 4
  store ptr %status, ptr %status.addr, align 8
  %this1 = load ptr, ptr %this.addr, align 8
  %0 = load ptr, ptr %status.addr, align 8
  %1 = load i32, ptr %0, align 4
  %call = call noundef signext i8 @_ZL9U_FAILURE10UErrorCode(i32 noundef %1)
  %tobool = icmp ne i8 %call, 0
  br i1 %tobool, label %if.then, label %if.end

if.then:                                          ; preds = %entry
  br label %return

if.end:                                           ; preds = %entry
  %2 = load ptr, ptr %data.addr, align 8
  %cmp = icmp eq ptr %2, null
  br i1 %cmp, label %if.then2, label %if.end3

if.then2:                                         ; preds = %if.end
  %3 = load ptr, ptr %status.addr, align 8
  store i32 1, ptr %3, align 4
  br label %return

if.end3:                                          ; preds = %if.end
  %fPatternModifier = getelementptr inbounds %"class.icu_75::number::SimpleNumberFormatter", ptr %this1, i32 0, i32 3
  %4 = load ptr, ptr %fPatternModifier, align 8
  %cmp4 = icmp eq ptr %4, null
  br i1 %cmp4, label %if.then6, label %lor.lhs.false

lor.lhs.false:                                    ; preds = %if.end3
  %fMicros = getelementptr inbounds %"class.icu_75::number::SimpleNumberFormatter", ptr %this1, i32 0, i32 2
  %5 = load ptr, ptr %fMicros, align 8
  %cmp5 = icmp eq ptr %5, null
  br i1 %cmp5, label %if.then6, label %if.end7

if.then6:                                         ; preds = %lor.lhs.false, %if.end3
  %6 = load ptr, ptr %status.addr, align 8
  store i32 27, ptr %6, align 4
  br label %return

if.end7:                                          ; preds = %lor.lhs.false
  %7 = load i32, ptr %sign.addr, align 4
  %cmp8 = icmp eq i32 %7, 2
  br i1 %cmp8, label %if.then9, label %if.else

if.then9:                                         ; preds = %if.end7
  store i32 0, ptr %signum, align 4
  br label %if.end14

if.else:                                          ; preds = %if.end7
  %8 = load i32, ptr %sign.addr, align 4
  %cmp10 = icmp eq i32 %8, 0
  br i1 %cmp10, label %if.then11, label %if.else12

if.then11:                                        ; preds = %if.else
  store i32 3, ptr %signum, align 4
  br label %if.end13

if.else12:                                        ; preds = %if.else
  store i32 2, ptr %signum, align 4
  br label %if.end13

if.end13:                                         ; preds = %if.else12, %if.then11
  br label %if.end14

if.end14:                                         ; preds = %if.end13, %if.then9
  %fPatternModifier15 = getelementptr inbounds %"class.icu_75::number::SimpleNumberFormatter", ptr %this1, i32 0, i32 3
  %9 = load ptr, ptr %fPatternModifier15, align 8
  %10 = load i32, ptr %signum, align 4
  %call16 = call noundef nonnull align 8 dereferenceable(8) ptr @_ZN6icu_756number4impl27AdoptingSignumModifierStoreixENS1_6SignumE(ptr noundef nonnull align 8 dereferenceable(40) %9, i32 noundef %10)
  %11 = load ptr, ptr %call16, align 8
  store ptr %11, ptr %modifier, align 8
  %fMicros17 = getelementptr inbounds %"class.icu_75::number::SimpleNumberFormatter", ptr %this1, i32 0, i32 2
  %12 = load ptr, ptr %fMicros17, align 8
  %13 = load ptr, ptr %data.addr, align 8
  %quantity = getelementptr inbounds %"class.icu_75::number::impl::UFormattedNumberData", ptr %13, i32 0, i32 2
  %14 = load ptr, ptr %data.addr, align 8
  %call18 = call noundef nonnull align 8 dereferenceable(136) ptr @_ZN6icu_7531FormattedValueStringBuilderImpl12getStringRefEv(ptr noundef nonnull align 8 dereferenceable(300) %14)
  %15 = load ptr, ptr %status.addr, align 8
  %call19 = call noundef i32 @_ZN6icu_756number4impl19NumberFormatterImpl11writeNumberERKNS1_16SimpleMicroPropsERNS1_15DecimalQuantityERNS_22FormattedStringBuilderEiR10UErrorCode(ptr noundef nonnull align 8 dereferenceable(96) %12, ptr noundef nonnull align 8 dereferenceable(66) %quantity, ptr noundef nonnull align 8 dereferenceable(136) %call18, i32 noundef 0, ptr noundef nonnull align 4 dereferenceable(4) %15)
  store i32 %call19, ptr %length, align 4
  %16 = load ptr, ptr %modifier, align 8
  %17 = load ptr, ptr %data.addr, align 8
  %call20 = call noundef nonnull align 8 dereferenceable(136) ptr @_ZN6icu_7531FormattedValueStringBuilderImpl12getStringRefEv(ptr noundef nonnull align 8 dereferenceable(300) %17)
  %18 = load i32, ptr %length, align 4
  %19 = load ptr, ptr %status.addr, align 8
  %vtable = load ptr, ptr %16, align 8
  %vfn = getelementptr inbounds ptr, ptr %vtable, i64 2
  %20 = load ptr, ptr %vfn, align 8
  %call21 = call noundef i32 %20(ptr noundef nonnull align 8 dereferenceable(8) %16, ptr noundef nonnull align 8 dereferenceable(136) %call20, i32 noundef 0, i32 noundef %18, ptr noundef nonnull align 4 dereferenceable(4) %19)
  %21 = load i32, ptr %length, align 4
  %add = add nsw i32 %21, %call21
  store i32 %add, ptr %length, align 4
  %22 = load ptr, ptr %data.addr, align 8
  %call22 = call noundef nonnull align 8 dereferenceable(136) ptr @_ZN6icu_7531FormattedValueStringBuilderImpl12getStringRefEv(ptr noundef nonnull align 8 dereferenceable(300) %22)
  %23 = load ptr, ptr %status.addr, align 8
  call void @_ZN6icu_7522FormattedStringBuilder15writeTerminatorER10UErrorCode(ptr noundef nonnull align 8 dereferenceable(136) %call22, ptr noundef nonnull align 4 dereferenceable(4) %23)
  br label %return

return:                                           ; preds = %if.end14, %if.then6, %if.then2, %if.then
  ret void
}