; Function Attrs: mustprogress uwtable
define void @_ZNK6icu_756number21SimpleNumberFormatter10formatImplEPNS0_4impl20UFormattedNumberDataE17USimpleNumberSignR10UErrorCode(ptr nocapture noundef nonnull readonly align 8 dereferenceable(32) %this, ptr noundef %data, i32 noundef %sign, ptr noundef nonnull align 4 dereferenceable(4) %status) local_unnamed_addr #1 align 2 {
entry:
  %0 = load i32, ptr %status, align 4
  %cmp.i = icmp slt i32 %0, 1
  br i1 %cmp.i, label %if.end, label %return

if.end:                                           ; preds = %entry
  %cmp = icmp eq ptr %data, null
  br i1 %cmp, label %if.then2, label %if.end3

if.then2:                                         ; preds = %if.end
  store i32 1, ptr %status, align 4
  br label %return

if.end3:                                          ; preds = %if.end
  %fPatternModifier = getelementptr inbounds i8, ptr %this, i64 24
  %1 = load ptr, ptr %fPatternModifier, align 8
  %cmp4 = icmp eq ptr %1, null
  br i1 %cmp4, label %if.then6, label %lor.lhs.false

lor.lhs.false:                                    ; preds = %if.end3
  %fMicros = getelementptr inbounds i8, ptr %this, i64 16
  %2 = load ptr, ptr %fMicros, align 8
  %cmp5 = icmp eq ptr %2, null
  br i1 %cmp5, label %if.then6, label %if.end7

if.then6:                                         ; preds = %lor.lhs.false, %if.end3
  store i32 27, ptr %status, align 4
  br label %return

if.end7:                                          ; preds = %lor.lhs.false
  %switch.selectcmp = icmp eq i32 %sign, 0
  %switch.select = select i1 %switch.selectcmp, i64 3, i64 2
  %switch.selectcmp12 = icmp eq i32 %sign, 2
  %switch.select13 = select i1 %switch.selectcmp12, i64 0, i64 %switch.select
  %mods.i = getelementptr inbounds i8, ptr %1, i64 8
  %arrayidx.i = getelementptr inbounds [4 x ptr], ptr %mods.i, i64 0, i64 %switch.select13
  %3 = load ptr, ptr %arrayidx.i, align 8
  %quantity = getelementptr inbounds i8, ptr %data, i64 304
  %fString.i = getelementptr inbounds i8, ptr %data, i64 8
  %call19 = tail call noundef i32 @_ZN6icu_756number4impl19NumberFormatterImpl11writeNumberERKNS1_16SimpleMicroPropsERNS1_15DecimalQuantityERNS_22FormattedStringBuilderEiR10UErrorCode(ptr noundef nonnull align 8 dereferenceable(96) %2, ptr noundef nonnull align 8 dereferenceable(66) %quantity, ptr noundef nonnull align 8 dereferenceable(136) %fString.i, i32 noundef 0, ptr noundef nonnull align 4 dereferenceable(4) %status)
  %vtable = load ptr, ptr %3, align 8
  %vfn = getelementptr inbounds i8, ptr %vtable, i64 16
  %4 = load ptr, ptr %vfn, align 8
  %call21 = tail call noundef i32 %4(ptr noundef nonnull align 8 dereferenceable(8) %3, ptr noundef nonnull align 8 dereferenceable(136) %fString.i, i32 noundef 0, i32 noundef %call19, ptr noundef nonnull align 4 dereferenceable(4) %status)
  tail call void @_ZN6icu_7522FormattedStringBuilder15writeTerminatorER10UErrorCode(ptr noundef nonnull align 8 dereferenceable(136) %fString.i, ptr noundef nonnull align 4 dereferenceable(4) %status)
  br label %return

return:                                           ; preds = %entry, %if.end7, %if.then6, %if.then2
  ret void
}